target datalayout = "e-m:e-p270:32:32-p271:32:32-p272:64:64-i64:64-i128:128-f80:128-n8:16:32:64-S128"
target triple = "x86_64-pc-linux-gnu"

%"struct.std::atomic" = type { %"struct.std::__atomic_base" }
%"struct.std::__atomic_base" = type { ptr }
%"class.pxrInternal_v0_24__pxrReserved__::TfCallContext" = type <{ ptr, ptr, i64, ptr, i8, [7 x i8] }>
%"class.pxrInternal_v0_24__pxrReserved__::TfEnum" = type <{ ptr, i32, [4 x i8] }>
%"class.std::any" = type { ptr, %"union.std::any::_Storage" }
%"union.std::any::_Storage" = type { ptr }
%"struct.pxrInternal_v0_24__pxrReserved__::TfDiagnosticMgr::StatusHelper" = type { %"class.pxrInternal_v0_24__pxrReserved__::TfCallContext", %"class.pxrInternal_v0_24__pxrReserved__::TfEnum", ptr }

@_ZN32pxrInternal_v0_24__pxrReserved__11TfSingletonINS_15TfDiagnosticMgrEE9_instanceE = weak_odr global %"struct.std::atomic" zeroinitializer, comdat, align 8

; Function Attrs: mustprogress nounwind uwtable
define linkonce_odr noundef i32 @_ZStanSt12memory_orderSt23__memory_order_modifier(i32 noundef %0, i32 noundef %1) #1 comdat {
  %3 = alloca i32, align 4
  %4 = alloca i32, align 4
  store i32 %0, ptr %3, align 4
  store i32 %1, ptr %4, align 4
  %5 = load i32, ptr %3, align 4
  %6 = load i32, ptr %4, align 4
  %7 = and i32 %5, %6
  ret i32 %7
}

; Function Attrs: mustprogress nounwind uwtable
define linkonce_odr noundef ptr @_ZNKSt6atomicIPN32pxrInternal_v0_24__pxrReserved__15TfDiagnosticMgrEE4loadESt12memory_order(ptr noundef nonnull align 8 dereferenceable(8) %0, i32 noundef %1) #1 comdat align 2 {
  %3 = alloca ptr, align 8
  %4 = alloca i32, align 4
  %5 = alloca i32, align 4
  %6 = alloca ptr, align 8
  %7 = alloca ptr, align 8
  %8 = alloca i32, align 4
  store ptr %0, ptr %7, align 8
  store i32 %1, ptr %8, align 4
  %9 = load ptr, ptr %7, align 8
  %10 = getelementptr inbounds nuw %"struct.std::atomic", ptr %9, i32 0, i32 0
  %11 = load i32, ptr %8, align 4
  store ptr %10, ptr %3, align 8
  store i32 %11, ptr %4, align 4
  %12 = load ptr, ptr %3, align 8
  %13 = load i32, ptr %4, align 4
  %14 = call noundef i32 @_ZStanSt12memory_orderSt23__memory_order_modifier(i32 noundef %13, i32 noundef 65535)
  store i32 %14, ptr %5, align 4
  %15 = load i32, ptr %4, align 4
  switch i32 %15, label %16 [
    i32 1, label %18
    i32 2, label %18
    i32 5, label %20
  ]

16:                                               ; preds = %2
  %17 = load atomic i64, ptr %12 monotonic, align 8
  store i64 %17, ptr %6, align 8
  br label %22

18:                                               ; preds = %2, %2
  %19 = load atomic i64, ptr %12 acquire, align 8
  store i64 %19, ptr %6, align 8
  br label %22

20:                                               ; preds = %2
  %21 = load atomic i64, ptr %12 seq_cst, align 8
  store i64 %21, ptr %6, align 8
  br label %22

22:                                               ; preds = %20, %18, %16
  %23 = load ptr, ptr %6, align 8
  ret ptr %23
}

; Function Attrs: mustprogress nounwind uwtable
define linkonce_odr void @_ZNSt3any8_StorageC2Ev(ptr noundef nonnull align 8 dereferenceable(8) %0) unnamed_addr #1 comdat align 2 {
  %2 = alloca ptr, align 8
  store ptr %0, ptr %2, align 8
  %3 = load ptr, ptr %2, align 8
  store ptr null, ptr %3, align 8
  ret void
}

; Function Attrs: mustprogress uwtable
define weak_odr noundef nonnull align 8 dereferenceable(481) ptr @_ZN32pxrInternal_v0_24__pxrReserved__11TfSingletonINS_15TfDiagnosticMgrEE11GetInstanceEv() #0 comdat align 2 {
  %1 = alloca ptr, align 8
  %2 = call noundef ptr @_ZNKSt6atomicIPN32pxrInternal_v0_24__pxrReserved__15TfDiagnosticMgrEE4loadESt12memory_order(ptr noundef nonnull align 8 dereferenceable(8) @_ZN32pxrInternal_v0_24__pxrReserved__11TfSingletonINS_15TfDiagnosticMgrEE9_instanceE, i32 noundef 5) #13
  store ptr %2, ptr %1, align 8
  %3 = load ptr, ptr %1, align 8
  %4 = icmp ne ptr %3, null
  br i1 %4, label %7, label %5

5:                                                ; preds = %0
  %6 = call noundef ptr @_ZN32pxrInternal_v0_24__pxrReserved__11TfSingletonINS_15TfDiagnosticMgrEE15_CreateInstanceERSt6atomicIPS1_E(ptr noundef nonnull align 8 dereferenceable(8) @_ZN32pxrInternal_v0_24__pxrReserved__11TfSingletonINS_15TfDiagnosticMgrEE9_instanceE)
  store ptr %6, ptr %1, align 8
  br label %7

7:                                                ; preds = %5, %0
  %8 = load ptr, ptr %1, align 8
  ret ptr %8
}

; Function Attrs: mustprogress nounwind uwtable
define linkonce_odr void @_ZNSt3anyC2Ev(ptr noundef nonnull align 8 dereferenceable(16) %0) unnamed_addr #1 comdat align 2 personality ptr @__gxx_personality_v0 {
  %2 = alloca ptr, align 8
  store ptr %0, ptr %2, align 8
  %3 = load ptr, ptr %2, align 8
  %4 = getelementptr inbounds nuw %"class.std::any", ptr %3, i32 0, i32 0
  store ptr null, ptr %4, align 8
  %5 = getelementptr inbounds nuw %"class.std::any", ptr %3, i32 0, i32 1
  invoke void @_ZNSt3any8_StorageC2Ev(ptr noundef nonnull align 8 dereferenceable(8) %5)
          to label %6 unwind label %7

6:                                                ; preds = %1
  ret void

7:                                                ; preds = %1
  %8 = landingpad { ptr, i32 }
          catch ptr null
  %9 = extractvalue { ptr, i32 } %8, 0
  call void @__clang_call_terminate(ptr %9) #21
  unreachable
}

; Function Attrs: mustprogress uwtable
define linkonce_odr noundef nonnull align 8 dereferenceable(481) ptr @_ZN32pxrInternal_v0_24__pxrReserved__15TfDiagnosticMgr11GetInstanceEv() #0 comdat align 2 {
  %1 = call noundef nonnull align 8 dereferenceable(481) ptr @_ZN32pxrInternal_v0_24__pxrReserved__11TfSingletonINS_15TfDiagnosticMgrEE11GetInstanceEv()
  ret ptr %1
}

; Function Attrs: mustprogress uwtable
define void @_ZNK32pxrInternal_v0_24__pxrReserved__15TfDiagnosticMgr12StatusHelper4PostERKNSt7__cxx1112basic_stringIcSt11char_traitsIcESaIcEEE(ptr noundef nonnull align 8 dereferenceable(64) %0, ptr noundef nonnull align 8 dereferenceable(32) %1) #0 align 2 personality ptr @__gxx_personality_v0 {
  %3 = alloca ptr, align 8
  %4 = alloca ptr, align 8
  %5 = alloca %"class.pxrInternal_v0_24__pxrReserved__::TfEnum", align 8
  %6 = alloca %"class.std::any", align 8
  %7 = alloca ptr, align 8
  %8 = alloca i32, align 4
  store ptr %0, ptr %3, align 8
  store ptr %1, ptr %4, align 8
  %9 = load ptr, ptr %3, align 8
  %10 = call noundef nonnull align 8 dereferenceable(481) ptr @_ZN32pxrInternal_v0_24__pxrReserved__15TfDiagnosticMgr11GetInstanceEv()
  %11 = getelementptr inbounds nuw %"struct.pxrInternal_v0_24__pxrReserved__::TfDiagnosticMgr::StatusHelper", ptr %9, i32 0, i32 1
  call void @llvm.memcpy.p0.p0.i64(ptr align 8 %5, ptr align 8 %11, i64 16, i1 false)
  %12 = getelementptr inbounds nuw %"struct.pxrInternal_v0_24__pxrReserved__::TfDiagnosticMgr::StatusHelper", ptr %9, i32 0, i32 2
  %13 = load ptr, ptr %12, align 8
  %14 = getelementptr inbounds nuw %"struct.pxrInternal_v0_24__pxrReserved__::TfDiagnosticMgr::StatusHelper", ptr %9, i32 0, i32 0
  %15 = load ptr, ptr %4, align 8
  call void @_ZNSt3anyC2Ev(ptr noundef nonnull align 8 dereferenceable(16) %6) #13
  %16 = getelementptr inbounds nuw { ptr, i32 }, ptr %5, i32 0, i32 0
  %17 = load ptr, ptr %16, align 8
  %18 = getelementptr inbounds nuw { ptr, i32 }, ptr %5, i32 0, i32 1
  %19 = load i32, ptr %18, align 8
  invoke void @_ZNK32pxrInternal_v0_24__pxrReserved__15TfDiagnosticMgr10PostStatusENS_6TfEnumEPKcRKNS_13TfCallContextERKNSt7__cxx1112basic_stringIcSt11char_traitsIcESaIcEEESt3anyb(ptr noundef nonnull align 8 dereferenceable(481) %10, ptr %17, i32 %19, ptr noundef %13, ptr noundef nonnull align 8 dereferenceable(33) %14, ptr noundef nonnull align 8 dereferenceable(32) %15, ptr noundef %6, i1 noundef zeroext false)
          to label %20 unwind label %21

20:                                               ; preds = %2
  call void @_ZNSt3anyD2Ev(ptr noundef nonnull align 8 dereferenceable(16) %6) #13
  ret void

21:                                               ; preds = %2
  %22 = landingpad { ptr, i32 }
          cleanup
  %23 = extractvalue { ptr, i32 } %22, 0
  store ptr %23, ptr %7, align 8
  %24 = extractvalue { ptr, i32 } %22, 1
  store i32 %24, ptr %8, align 4
  call void @_ZNSt3anyD2Ev(ptr noundef nonnull align 8 dereferenceable(16) %6) #13
  br label %25

25:                                               ; preds = %21
  %26 = load ptr, ptr %7, align 8
  %27 = load i32, ptr %8, align 4
  %28 = insertvalue { ptr, i32 } poison, ptr %26, 0
  %29 = insertvalue { ptr, i32 } %28, i32 %27, 1
  resume { ptr, i32 } %29
}